; Function Attrs: mustprogress nofree norecurse nosync nounwind willreturn memory(read, inaccessiblemem: none) uwtable
define hidden noundef ptr @_ZN3smt10theory_str7get_astEi(ptr noundef nonnull readonly align 8 captures(none) dereferenceable(1800) %0, i32 noundef %1) local_unnamed_addr #13 align 2 {
  %3 = getelementptr inbounds nuw i8, ptr %0, i64 32
  %4 = load ptr, ptr %3, align 8, !tbaa !371
  %5 = zext i32 %1 to i64
  %6 = getelementptr inbounds nuw ptr, ptr %4, i64 %5
  %7 = load ptr, ptr %6, align 8, !tbaa !851
  %8 = load ptr, ptr %7, align 8, !tbaa !862
  ret ptr %8
}